; Function Attrs: null_pointer_is_valid sspstrong uwtable
define internal fastcc void @dissect_mih_list(ptr noundef %0, i16 noundef signext %1, ptr noundef %2, ptr noundef readonly captures(none) %3) unnamed_addr #0 {
  %5 = sext i16 %1 to i32
  %6 = tail call zeroext i8 @tvb_get_uint8(ptr noundef %0, i32 noundef %5)
  %.not = icmp eq i8 %6, 0
  br i1 %.not, label %._crit_edge, label %.lr.ph.preheader

.lr.ph.preheader:                                 ; preds = %4
  %7 = add i16 %1, 1
  br label %.lr.ph

.lr.ph:                                           ; preds = %.lr.ph.preheader, %.lr.ph
  %.012 = phi i16 [ %8, %.lr.ph ], [ %7, %.lr.ph.preheader ]
  %.01011 = phi i8 [ %9, %.lr.ph ], [ 0, %.lr.ph.preheader ]
  %8 = tail call signext i16 %3(ptr noundef %0, i16 noundef signext %.012, ptr noundef %2)
  %9 = add nuw i8 %.01011, 1
  %exitcond.not = icmp eq i8 %9, %6
  br i1 %exitcond.not, label %._crit_edge, label %.lr.ph, !llvm.loop !11

._crit_edge:                                      ; preds = %.lr.ph, %4
  ret void
}